target datalayout = "e-m:e-p270:32:32-p271:32:32-p272:64:64-i64:64-i128:128-f80:128-n8:16:32:64-S128"
target triple = "x86_64-pc-linux-gnu"

%union.anon.12 = type { ptr }

@.str.1 = private unnamed_addr constant [6 x i8] c"CLASS\00", align 1
@.str.9 = private unnamed_addr constant [6 x i8] c"IMAGE\00", align 1
@.str.10 = private unnamed_addr constant [8 x i8] c"PALETTE\00", align 1
@.str.11 = private unnamed_addr constant [6 x i8] c"TABLE\00", align 1

; Function Attrs: nounwind uwtable
define internal i32 @H5DS_is_reserved(i64 noundef %0, ptr noundef %1) #0 {
  %3 = alloca i32, align 4
  %4 = alloca i64, align 8
  %5 = alloca ptr, align 8
  %6 = alloca i32, align 4
  %7 = alloca i64, align 8
  %8 = alloca i64, align 8
  %9 = alloca ptr, align 8
  %10 = alloca i64, align 8
  %11 = alloca i32, align 4
  %12 = alloca i32, align 4
  %13 = alloca %union.anon.12, align 8
  %14 = alloca ptr, align 8
  store i64 %0, ptr %4, align 8, !tbaa !3
  store ptr %1, ptr %5, align 8, !tbaa !7
  call void @llvm.lifetime.start.p0(i64 4, ptr %6) #10
  call void @llvm.lifetime.start.p0(i64 8, ptr %7) #10
  store i64 -1, ptr %7, align 8, !tbaa !3
  call void @llvm.lifetime.start.p0(i64 8, ptr %8) #10
  store i64 -1, ptr %8, align 8, !tbaa !3
  call void @llvm.lifetime.start.p0(i64 8, ptr %9) #10
  store ptr null, ptr %9, align 8, !tbaa !14
  call void @llvm.lifetime.start.p0(i64 8, ptr %10) #10
  %15 = load i64, ptr %4, align 8, !tbaa !3
  %16 = call i32 @H5Aexists(i64 noundef %15, ptr noundef @.str.1)
  store i32 %16, ptr %6, align 4, !tbaa !16
  %17 = icmp slt i32 %16, 0
  br i1 %17, label %18, label %19

18:                                               ; preds = %2
  store i32 -1, ptr %3, align 4
  store i32 1, ptr %11, align 4
  br label %144

19:                                               ; preds = %2
  %20 = load i32, ptr %6, align 4, !tbaa !16
  %21 = icmp eq i32 %20, 0
  br i1 %21, label %22, label %24

22:                                               ; preds = %19
  %23 = load ptr, ptr %5, align 8, !tbaa !7
  store i8 0, ptr %23, align 1, !tbaa !10
  store i32 0, ptr %3, align 4
  store i32 1, ptr %11, align 4
  br label %144

24:                                               ; preds = %19
  %25 = load i64, ptr %4, align 8, !tbaa !3
  %26 = call i64 @H5Aopen(i64 noundef %25, ptr noundef @.str.1, i64 noundef 0)
  store i64 %26, ptr %8, align 8, !tbaa !3
  %27 = icmp slt i64 %26, 0
  br i1 %27, label %28, label %29

28:                                               ; preds = %24
  br label %117

29:                                               ; preds = %24
  %30 = load i64, ptr %8, align 8, !tbaa !3
  %31 = call i64 @H5Aget_type(i64 noundef %30)
  store i64 %31, ptr %7, align 8, !tbaa !3
  %32 = icmp slt i64 %31, 0
  br i1 %32, label %33, label %34

33:                                               ; preds = %29
  br label %117

34:                                               ; preds = %29
  %35 = load i64, ptr %7, align 8, !tbaa !3
  %36 = call i32 @H5Tget_class(i64 noundef %35)
  %37 = icmp ne i32 3, %36
  br i1 %37, label %38, label %39

38:                                               ; preds = %34
  br label %117

39:                                               ; preds = %34
  %40 = load i64, ptr %7, align 8, !tbaa !3
  %41 = call i32 @H5Tget_strpad(i64 noundef %40)
  %42 = icmp ne i32 0, %41
  br i1 %42, label %43, label %44

43:                                               ; preds = %39
  br label %117

44:                                               ; preds = %39
  %45 = load i64, ptr %7, align 8, !tbaa !3
  %46 = call i64 @H5Tget_size(i64 noundef %45)
  store i64 %46, ptr %10, align 8, !tbaa !3
  %47 = icmp eq i64 %46, 0
  br i1 %47, label %48, label %49

48:                                               ; preds = %44
  br label %117

49:                                               ; preds = %44
  %50 = load i64, ptr %10, align 8, !tbaa !3
  %51 = mul i64 %50, 1
  %52 = call noalias ptr @malloc(i64 noundef %51) #11
  store ptr %52, ptr %9, align 8, !tbaa !14
  %53 = icmp eq ptr null, %52
  br i1 %53, label %54, label %55

54:                                               ; preds = %49
  br label %117

55:                                               ; preds = %49
  %56 = load i64, ptr %8, align 8, !tbaa !3
  %57 = load i64, ptr %7, align 8, !tbaa !3
  %58 = load ptr, ptr %9, align 8, !tbaa !14
  %59 = call i32 @H5Aread(i64 noundef %56, i64 noundef %57, ptr noundef %58)
  %60 = icmp slt i32 %59, 0
  br i1 %60, label %61, label %62

61:                                               ; preds = %55
  br label %117

62:                                               ; preds = %55
  %63 = load ptr, ptr %9, align 8, !tbaa !14
  %64 = load ptr, ptr %9, align 8, !tbaa !14
  %65 = call i64 @strlen(ptr noundef %64) #13
  %66 = icmp ult i64 5, %65
  br i1 %66, label %67, label %68

67:                                               ; preds = %62
  br label %71

68:                                               ; preds = %62
  %69 = load ptr, ptr %9, align 8, !tbaa !14
  %70 = call i64 @strlen(ptr noundef %69) #13
  br label %71

71:                                               ; preds = %68, %67
  %72 = phi i64 [ 5, %67 ], [ %70, %68 ]
  %73 = call i32 @strncmp(ptr noundef %63, ptr noundef @.str.9, i64 noundef %72) #13
  %74 = icmp eq i32 %73, 0
  br i1 %74, label %101, label %75

75:                                               ; preds = %71
  %76 = load ptr, ptr %9, align 8, !tbaa !14
  %77 = load ptr, ptr %9, align 8, !tbaa !14
  %78 = call i64 @strlen(ptr noundef %77) #13
  %79 = icmp ult i64 7, %78
  br i1 %79, label %80, label %81

80:                                               ; preds = %75
  br label %84

81:                                               ; preds = %75
  %82 = load ptr, ptr %9, align 8, !tbaa !14
  %83 = call i64 @strlen(ptr noundef %82) #13
  br label %84

84:                                               ; preds = %81, %80
  %85 = phi i64 [ 7, %80 ], [ %83, %81 ]
  %86 = call i32 @strncmp(ptr noundef %76, ptr noundef @.str.10, i64 noundef %85) #13
  %87 = icmp eq i32 %86, 0
  br i1 %87, label %101, label %88

88:                                               ; preds = %84
  %89 = load ptr, ptr %9, align 8, !tbaa !14
  %90 = load ptr, ptr %9, align 8, !tbaa !14
  %91 = call i64 @strlen(ptr noundef %90) #13
  %92 = icmp ult i64 5, %91
  br i1 %92, label %93, label %94

93:                                               ; preds = %88
  br label %97

94:                                               ; preds = %88
  %95 = load ptr, ptr %9, align 8, !tbaa !14
  %96 = call i64 @strlen(ptr noundef %95) #13
  br label %97

97:                                               ; preds = %94, %93
  %98 = phi i64 [ 5, %93 ], [ %96, %94 ]
  %99 = call i32 @strncmp(ptr noundef %89, ptr noundef @.str.11, i64 noundef %98) #13
  %100 = icmp eq i32 %99, 0
  br i1 %100, label %101, label %103

101:                                              ; preds = %97, %84, %71
  %102 = load ptr, ptr %5, align 8, !tbaa !7
  store i8 1, ptr %102, align 1, !tbaa !10
  br label %105

103:                                              ; preds = %97
  %104 = load ptr, ptr %5, align 8, !tbaa !7
  store i8 0, ptr %104, align 1, !tbaa !10
  br label %105

105:                                              ; preds = %103, %101
  %106 = load ptr, ptr %9, align 8, !tbaa !14
  call void @free(ptr noundef %106) #10
  %107 = load i64, ptr %7, align 8, !tbaa !3
  %108 = call i32 @H5Tclose(i64 noundef %107)
  %109 = icmp slt i32 %108, 0
  br i1 %109, label %110, label %111

110:                                              ; preds = %105
  br label %117

111:                                              ; preds = %105
  %112 = load i64, ptr %8, align 8, !tbaa !3
  %113 = call i32 @H5Aclose(i64 noundef %112)
  %114 = icmp slt i32 %113, 0
  br i1 %114, label %115, label %116

115:                                              ; preds = %111
  br label %117

116:                                              ; preds = %111
  store i32 0, ptr %3, align 4
  store i32 1, ptr %11, align 4
  br label %144

117:                                              ; preds = %115, %110, %61, %54, %48, %43, %38, %33, %28
  call void @llvm.lifetime.start.p0(i64 4, ptr %12) #10
  call void @llvm.lifetime.start.p0(i64 8, ptr %13) #10
  call void @llvm.lifetime.start.p0(i64 8, ptr %14) #10
  %118 = call i32 @H5Eauto_is_v2(i64 noundef 0, ptr noundef %12)
  %119 = load i32, ptr %12, align 4, !tbaa !16
  %120 = icmp ne i32 %119, 0
  br i1 %120, label %121, label %124

121:                                              ; preds = %117
  %122 = call i32 @H5Eget_auto2(i64 noundef 0, ptr noundef %13, ptr noundef %14)
  %123 = call i32 @H5Eset_auto2(i64 noundef 0, ptr noundef null, ptr noundef null)
  br label %127

124:                                              ; preds = %117
  %125 = call i32 @H5Eget_auto1(ptr noundef %13, ptr noundef %14)
  %126 = call i32 @H5Eset_auto1(ptr noundef null, ptr noundef null)
  br label %127

127:                                              ; preds = %124, %121
  %128 = load i64, ptr %7, align 8, !tbaa !3
  %129 = call i32 @H5Tclose(i64 noundef %128)
  %130 = load i64, ptr %8, align 8, !tbaa !3
  %131 = call i32 @H5Aclose(i64 noundef %130)
  %132 = load i32, ptr %12, align 4, !tbaa !16
  %133 = icmp ne i32 %132, 0
  br i1 %133, label %134, label %138

134:                                              ; preds = %127
  %135 = load ptr, ptr %13, align 8, !tbaa !32
  %136 = load ptr, ptr %14, align 8, !tbaa !22
  %137 = call i32 @H5Eset_auto2(i64 noundef 0, ptr noundef %135, ptr noundef %136)
  br label %142

138:                                              ; preds = %127
  %139 = load ptr, ptr %13, align 8, !tbaa !32
  %140 = load ptr, ptr %14, align 8, !tbaa !22
  %141 = call i32 @H5Eset_auto1(ptr noundef %139, ptr noundef %140)
  br label %142

142:                                              ; preds = %138, %134
  call void @llvm.lifetime.end.p0(i64 8, ptr %14) #10
  call void @llvm.lifetime.end.p0(i64 8, ptr %13) #10
  call void @llvm.lifetime.end.p0(i64 4, ptr %12) #10
  %143 = load ptr, ptr %9, align 8, !tbaa !14
  call void @free(ptr noundef %143) #10
  store i32 -1, ptr %3, align 4
  store i32 1, ptr %11, align 4
  br label %144

144:                                              ; preds = %142, %116, %22, %18
  call void @llvm.lifetime.end.p0(i64 8, ptr %10) #10
  call void @llvm.lifetime.end.p0(i64 8, ptr %9) #10
  call void @llvm.lifetime.end.p0(i64 8, ptr %8) #10
  call void @llvm.lifetime.end.p0(i64 8, ptr %7) #10
  call void @llvm.lifetime.end.p0(i64 4, ptr %6) #10
  %145 = load i32, ptr %3, align 4
  ret i32 %145
}