; Function Attrs: nounwind uwtable
define internal fastcc range(i32 -1, 1) i32 @H5DS_is_reserved(i64 noundef %0, ptr noundef nonnull writeonly captures(none) %1) unnamed_addr #0 {
  %3 = alloca i32, align 4
  %4 = alloca %union.anon.12, align 8
  %5 = alloca ptr, align 8
  %6 = tail call i32 @H5Aexists(i64 noundef %0, ptr noundef nonnull @.str.1) #10
  %7 = icmp slt i32 %6, 0
  br i1 %7, label %66, label %8

8:                                                ; preds = %2
  %9 = icmp eq i32 %6, 0
  br i1 %9, label %10, label %11

10:                                               ; preds = %8
  store i8 0, ptr %1, align 1, !tbaa !3
  br label %66

11:                                               ; preds = %8
  %12 = tail call i64 @H5Aopen(i64 noundef %0, ptr noundef nonnull @.str.1, i64 noundef 0) #10
  %13 = icmp slt i64 %12, 0
  br i1 %13, label %46, label %14

14:                                               ; preds = %11
  %15 = tail call i64 @H5Aget_type(i64 noundef %12) #10
  %16 = icmp slt i64 %15, 0
  br i1 %16, label %46, label %17

17:                                               ; preds = %14
  %18 = tail call i32 @H5Tget_class(i64 noundef %15) #10
  %.not = icmp eq i32 %18, 3
  br i1 %.not, label %19, label %46

19:                                               ; preds = %17
  %20 = tail call i32 @H5Tget_strpad(i64 noundef %15) #10
  %.not40 = icmp eq i32 %20, 0
  br i1 %.not40, label %21, label %46

21:                                               ; preds = %19
  %22 = tail call i64 @H5Tget_size(i64 noundef %15) #10
  %23 = icmp eq i64 %22, 0
  br i1 %23, label %46, label %24

24:                                               ; preds = %21
  %25 = tail call noalias ptr @malloc(i64 noundef %22) #11
  %26 = icmp eq ptr %25, null
  br i1 %26, label %46, label %27

27:                                               ; preds = %24
  %28 = tail call i32 @H5Aread(i64 noundef %12, i64 noundef %15, ptr noundef nonnull %25) #10
  %29 = icmp slt i32 %28, 0
  br i1 %29, label %46, label %30

30:                                               ; preds = %27
  %31 = tail call i64 @strlen(ptr noundef nonnull dereferenceable(1) %25) #13
  %spec.select = tail call i64 @llvm.umin.i64(i64 %31, i64 5)
  %32 = tail call i32 @strncmp(ptr noundef nonnull %25, ptr noundef nonnull @.str.9, i64 noundef %spec.select) #13
  %33 = icmp eq i32 %32, 0
  br i1 %33, label %40, label %34

34:                                               ; preds = %30
  %spec.select43 = tail call i64 @llvm.umin.i64(i64 %31, i64 7)
  %35 = tail call i32 @strncmp(ptr noundef nonnull %25, ptr noundef nonnull @.str.10, i64 noundef %spec.select43) #13
  %36 = icmp eq i32 %35, 0
  br i1 %36, label %40, label %37

37:                                               ; preds = %34
  %38 = tail call i32 @strncmp(ptr noundef nonnull %25, ptr noundef nonnull @.str.11, i64 noundef %spec.select) #13
  %39 = icmp eq i32 %38, 0
  %spec.select45 = zext i1 %39 to i8
  br label %40

40:                                               ; preds = %37, %30, %34
  %storemerge = phi i8 [ 1, %34 ], [ 1, %30 ], [ %spec.select45, %37 ]
  store i8 %storemerge, ptr %1, align 1, !tbaa !3
  tail call void @free(ptr noundef nonnull %25) #10
  %41 = tail call i32 @H5Tclose(i64 noundef %15) #10
  %42 = icmp slt i32 %41, 0
  br i1 %42, label %46, label %43

43:                                               ; preds = %40
  %44 = tail call i32 @H5Aclose(i64 noundef %12) #10
  %45 = icmp slt i32 %44, 0
  br i1 %45, label %46, label %66

46:                                               ; preds = %43, %40, %27, %24, %21, %19, %17, %14, %11
  %.030 = phi i64 [ -1, %11 ], [ %15, %14 ], [ %15, %17 ], [ %15, %19 ], [ %15, %21 ], [ %15, %24 ], [ %15, %27 ], [ %15, %40 ], [ %15, %43 ]
  %.029 = phi ptr [ null, %11 ], [ null, %14 ], [ null, %17 ], [ null, %19 ], [ null, %21 ], [ null, %24 ], [ %25, %27 ], [ %25, %40 ], [ %25, %43 ]
  call void @llvm.lifetime.start.p0(i64 4, ptr nonnull %3) #10
  call void @llvm.lifetime.start.p0(i64 8, ptr nonnull %4) #10
  call void @llvm.lifetime.start.p0(i64 8, ptr nonnull %5) #10
  %47 = call i32 @H5Eauto_is_v2(i64 noundef 0, ptr noundef nonnull %3) #10
  %48 = load i32, ptr %3, align 4, !tbaa !14
  %.not41 = icmp eq i32 %48, 0
  br i1 %.not41, label %52, label %49

49:                                               ; preds = %46
  %50 = call i32 @H5Eget_auto2(i64 noundef 0, ptr noundef nonnull %4, ptr noundef nonnull %5) #10
  %51 = call i32 @H5Eset_auto2(i64 noundef 0, ptr noundef null, ptr noundef null) #10
  br label %55

52:                                               ; preds = %46
  %53 = call i32 @H5Eget_auto1(ptr noundef nonnull %4, ptr noundef nonnull %5) #10
  %54 = call i32 @H5Eset_auto1(ptr noundef null, ptr noundef null) #10
  br label %55

55:                                               ; preds = %52, %49
  %56 = call i32 @H5Tclose(i64 noundef %.030) #10
  %57 = call i32 @H5Aclose(i64 noundef %12) #10
  %58 = load i32, ptr %3, align 4, !tbaa !14
  %.not42 = icmp eq i32 %58, 0
  %59 = load ptr, ptr %4, align 8, !tbaa !17
  %60 = load ptr, ptr %5, align 8, !tbaa !33
  br i1 %.not42, label %63, label %61

61:                                               ; preds = %55
  %62 = call i32 @H5Eset_auto2(i64 noundef 0, ptr noundef %59, ptr noundef %60) #10
  br label %65

63:                                               ; preds = %55
  %64 = call i32 @H5Eset_auto1(ptr noundef %59, ptr noundef %60) #10
  br label %65

65:                                               ; preds = %63, %61
  call void @llvm.lifetime.end.p0(i64 8, ptr nonnull %5) #10
  call void @llvm.lifetime.end.p0(i64 8, ptr nonnull %4) #10
  call void @llvm.lifetime.end.p0(i64 4, ptr nonnull %3) #10
  call void @free(ptr noundef %.029) #10
  br label %66

66:                                               ; preds = %43, %2, %65, %10
  %.0 = phi i32 [ 0, %10 ], [ -1, %65 ], [ -1, %2 ], [ 0, %43 ]
  ret i32 %.0
}